; Function Attrs: mustprogress uwtable
define dso_local void @_ZN15cmStateSnapshot9SetPolicyEN10cmPolicies8PolicyIDENS0_12PolicyStatusE(ptr noundef nonnull readonly align 8 captures(none) dereferenceable(24) %0, i32 noundef %1, i32 noundef %2) local_unnamed_addr #4 align 2 {
.critedge4:
  %3 = getelementptr inbounds nuw i8, ptr %0, i64 8
  %4 = load ptr, ptr %3, align 8
  %5 = getelementptr inbounds nuw i8, ptr %0, i64 16
  %6 = load i64, ptr %5, align 8
  %7 = load ptr, ptr %4, align 8
  %8 = getelementptr %"struct.cmStateDetail::SnapshotDataType", ptr %7, i64 %6
  %9 = getelementptr i8, ptr %8, i64 -176
  %.sroa.0.0.copyload7 = load ptr, ptr %9, align 8
  %.sroa.4.0..sroa_idx = getelementptr i8, ptr %8, i64 -168
  %10 = getelementptr inbounds nuw i8, ptr %.sroa.0.0.copyload7, i64 24
  br label %11

11:                                               ; preds = %.critedge4, %16
  %.sroa.4.0.in = phi ptr [ %.sroa.4.0..sroa_idx, %.critedge4 ], [ %27, %16 ]
  %.sroa.4.0 = load i64, ptr %.sroa.4.0.in, align 8
  %12 = load ptr, ptr %3, align 8
  %13 = load i64, ptr %5, align 8
  %14 = load ptr, ptr %12, align 8
  %15 = getelementptr %"struct.cmStateDetail::SnapshotDataType", ptr %14, i64 %13
  %.sroa.2.0..sroa_idx = getelementptr i8, ptr %15, i64 -152
  %.sroa.2.0.copyload = load i64, ptr %.sroa.2.0..sroa_idx, align 8
  %.not = icmp eq i64 %.sroa.4.0, %.sroa.2.0.copyload
  br i1 %.not, label %.critedge, label %16

16:                                               ; preds = %11
  %17 = load ptr, ptr %.sroa.0.0.copyload7, align 8
  %18 = getelementptr %"struct.cmStateDetail::PolicyStackEntry", ptr %17, i64 %.sroa.4.0
  %19 = getelementptr i8, ptr %18, i64 -72
  tail call void @_ZN10cmPolicies9PolicyMap3SetENS_8PolicyIDENS_12PolicyStatusE(ptr noundef nonnull align 8 dereferenceable(64) %19, i32 noundef %1, i32 noundef %2)
  %20 = load ptr, ptr %.sroa.0.0.copyload7, align 8
  %21 = getelementptr %"struct.cmStateDetail::PolicyStackEntry", ptr %20, i64 %.sroa.4.0
  %22 = getelementptr i8, ptr %21, i64 -8
  %23 = load i8, ptr %22, align 8
  %24 = trunc i8 %23 to i1
  %25 = load ptr, ptr %10, align 8
  %26 = getelementptr i64, ptr %25, i64 %.sroa.4.0
  %27 = getelementptr i8, ptr %26, i64 -8
  br i1 %24, label %11, label %.critedge

.critedge:                                        ; preds = %16, %11
  ret void
}